; Function Attrs: mustprogress uwtable
define internal noundef i32 @_ZN2cv12cpu_baselineL11normInf_64fEPKdPKhPdii(ptr noundef readonly captures(none) %0, ptr noundef readonly %1, ptr noundef captures(none) %2, i32 noundef %3, i32 noundef %4) #0 personality ptr @__gxx_personality_v0 {
  %6 = alloca %"class.cv::utils::trace::details::Region", align 8
  call void @llvm.lifetime.start.p0(i64 16, ptr nonnull %6) #17
  call void @_ZN2cv5utils5trace7details6RegionC1ERKNS3_21LocationStaticStorageE(ptr noundef nonnull align 8 dereferenceable(12) %6, ptr noundef nonnull align 8 dereferenceable(32) @_ZZN2cv12cpu_baselineL11normInf_64fEPKdPKhPdiiE25__cv_trace_location_fn648)
  %7 = load double, ptr %2, align 8, !tbaa !36
  %.not.i = icmp eq ptr %1, null
  br i1 %.not.i, label %18, label %.preheader29.i

.preheader29.i:                                   ; preds = %5
  %8 = icmp sgt i32 %3, 0
  br i1 %8, label %.lr.ph36.i, label %.loopexit

.lr.ph36.i:                                       ; preds = %.preheader29.i
  %9 = icmp sgt i32 %4, 0
  %10 = sext i32 %4 to i64
  br i1 %9, label %.lr.ph36.split.us.preheader.i, label %.loopexit

.lr.ph36.split.us.preheader.i:                    ; preds = %.lr.ph36.i
  %wide.trip.count43.i = zext nneg i32 %3 to i64
  %wide.trip.count.i = zext nneg i32 %4 to i64
  br label %.lr.ph36.split.us.i

.lr.ph36.split.us.i:                              ; preds = %..loopexit_crit_edge.us.i, %.lr.ph36.split.us.preheader.i
  %indvars.iv40.i = phi i64 [ 0, %.lr.ph36.split.us.preheader.i ], [ %indvars.iv.next41.i, %..loopexit_crit_edge.us.i ]
  %.01834.us.i = phi ptr [ %0, %.lr.ph36.split.us.preheader.i ], [ %17, %..loopexit_crit_edge.us.i ]
  %.133.us.i = phi double [ %7, %.lr.ph36.split.us.preheader.i ], [ %.3.us.i, %..loopexit_crit_edge.us.i ]
  %11 = getelementptr inbounds nuw i8, ptr %1, i64 %indvars.iv40.i
  %12 = load i8, ptr %11, align 1, !tbaa !12
  %.not20.us.i = icmp eq i8 %12, 0
  br i1 %.not20.us.i, label %..loopexit_crit_edge.us.i, label %.preheader.us.i

.preheader.us.i:                                  ; preds = %.lr.ph36.split.us.i, %.preheader.us.i
  %indvars.iv.i = phi i64 [ %indvars.iv.next.i, %.preheader.us.i ], [ 0, %.lr.ph36.split.us.i ]
  %.231.us.i = phi double [ %.sroa.speculated.us.i, %.preheader.us.i ], [ %.133.us.i, %.lr.ph36.split.us.i ]
  %13 = getelementptr inbounds nuw double, ptr %.01834.us.i, i64 %indvars.iv.i
  %14 = load double, ptr %13, align 8, !tbaa !36
  %15 = call noundef double @llvm.fabs.f64(double %14)
  %16 = fcmp olt double %.231.us.i, %15
  %.sroa.speculated.us.i = select i1 %16, double %15, double %.231.us.i
  %indvars.iv.next.i = add nuw nsw i64 %indvars.iv.i, 1
  %exitcond.not.i = icmp eq i64 %indvars.iv.next.i, %wide.trip.count.i
  br i1 %exitcond.not.i, label %..loopexit_crit_edge.us.i, label %.preheader.us.i, !llvm.loop !38

..loopexit_crit_edge.us.i:                        ; preds = %.preheader.us.i, %.lr.ph36.split.us.i
  %.3.us.i = phi double [ %.133.us.i, %.lr.ph36.split.us.i ], [ %.sroa.speculated.us.i, %.preheader.us.i ]
  %indvars.iv.next41.i = add nuw nsw i64 %indvars.iv40.i, 1
  %17 = getelementptr inbounds nuw double, ptr %.01834.us.i, i64 %10
  %exitcond44.not.i = icmp eq i64 %indvars.iv.next41.i, %wide.trip.count43.i
  br i1 %exitcond44.not.i, label %.loopexit, label %.lr.ph36.split.us.i, !llvm.loop !39

18:                                               ; preds = %5
  %19 = mul nsw i32 %4, %3
  %20 = icmp sgt i32 %19, 0
  br i1 %20, label %.lr.ph.preheader.i.i, label %_ZNK2cv12cpu_baseline12NormInf_SIMDIddEclEPKdi.exit.i

.lr.ph.preheader.i.i:                             ; preds = %18
  %wide.trip.count.i.i = zext nneg i32 %19 to i64
  br label %.lr.ph.i.i

.lr.ph.i.i:                                       ; preds = %.lr.ph.i.i, %.lr.ph.preheader.i.i
  %indvars.iv.i.i = phi i64 [ 0, %.lr.ph.preheader.i.i ], [ %indvars.iv.next.i.i, %.lr.ph.i.i ]
  %.056.i.i = phi double [ 0.000000e+00, %.lr.ph.preheader.i.i ], [ %.sroa.speculated.i.i, %.lr.ph.i.i ]
  %21 = getelementptr inbounds nuw double, ptr %0, i64 %indvars.iv.i.i
  %22 = load double, ptr %21, align 8, !tbaa !36
  %23 = call noundef double @llvm.fabs.f64(double %22)
  %24 = fcmp olt double %.056.i.i, %23
  %.sroa.speculated.i.i = select i1 %24, double %23, double %.056.i.i
  %indvars.iv.next.i.i = add nuw nsw i64 %indvars.iv.i.i, 1
  %exitcond.not.i.i = icmp eq i64 %indvars.iv.next.i.i, %wide.trip.count.i.i
  br i1 %exitcond.not.i.i, label %_ZNK2cv12cpu_baseline12NormInf_SIMDIddEclEPKdi.exit.i, label %.lr.ph.i.i, !llvm.loop !40

_ZNK2cv12cpu_baseline12NormInf_SIMDIddEclEPKdi.exit.i: ; preds = %.lr.ph.i.i, %18
  %.05.lcssa.i.i = phi double [ 0.000000e+00, %18 ], [ %.sroa.speculated.i.i, %.lr.ph.i.i ]
  %25 = fcmp olt double %7, %.05.lcssa.i.i
  %.sroa.speculated23.i = select i1 %25, double %.05.lcssa.i.i, double %7
  br label %.loopexit

.loopexit:                                        ; preds = %..loopexit_crit_edge.us.i, %_ZNK2cv12cpu_baseline12NormInf_SIMDIddEclEPKdi.exit.i, %.lr.ph36.i, %.preheader29.i
  %.028.i = phi double [ %.sroa.speculated23.i, %_ZNK2cv12cpu_baseline12NormInf_SIMDIddEclEPKdi.exit.i ], [ %7, %.preheader29.i ], [ %7, %.lr.ph36.i ], [ %.3.us.i, %..loopexit_crit_edge.us.i ]
  store double %.028.i, ptr %2, align 8, !tbaa !36
  %26 = getelementptr inbounds nuw i8, ptr %6, i64 8
  %27 = load i32, ptr %26, align 8, !tbaa !7
  %.not.i6 = icmp eq i32 %27, 0
  br i1 %.not.i6, label %_ZN2cv5utils5trace7details6RegionD2Ev.exit, label %28

28:                                               ; preds = %.loopexit
  invoke void @_ZN2cv5utils5trace7details6Region7destroyEv(ptr noundef nonnull align 8 dereferenceable(12) %6)
          to label %_ZN2cv5utils5trace7details6RegionD2Ev.exit unwind label %29

29:                                               ; preds = %28
  %30 = landingpad { ptr, i32 }
          catch ptr null
  %31 = extractvalue { ptr, i32 } %30, 0
  call void @__clang_call_terminate(ptr %31) #18
  unreachable

_ZN2cv5utils5trace7details6RegionD2Ev.exit:       ; preds = %.loopexit, %28
  call void @llvm.lifetime.end.p0(i64 16, ptr nonnull %6) #17
  ret i32 0
}